target datalayout = "e-m:e-p270:32:32-p271:32:32-p272:64:64-i64:64-i128:128-f80:128-n8:16:32:64-S128"
target triple = "x86_64-pc-linux-gnu"

; Function Attrs: nounwind uwtable
define dso_local i32 @bit_nset_max_count(ptr noundef %0) #0 {
  %2 = alloca ptr, align 8
  %3 = alloca i64, align 8
  %4 = alloca i32, align 4
  %5 = alloca i32, align 4
  %6 = alloca i32, align 4
  store ptr %0, ptr %2, align 8
  call void @llvm.lifetime.start.p0(i64 8, ptr %3) #12
  call void @llvm.lifetime.start.p0(i64 4, ptr %4) #12
  store i32 0, ptr %4, align 4
  call void @llvm.lifetime.start.p0(i64 4, ptr %5) #12
  store i32 0, ptr %5, align 4
  call void @llvm.lifetime.start.p0(i64 4, ptr %6) #12
  br label %7

7:                                                ; preds = %1
  br label %8

8:                                                ; preds = %7
  br label %9

9:                                                ; preds = %8
  %10 = load ptr, ptr %2, align 8
  %11 = getelementptr inbounds i64, ptr %10, i64 1
  %12 = load i64, ptr %11, align 8
  %13 = trunc i64 %12 to i32
  store i32 %13, ptr %6, align 4
  store i64 0, ptr %3, align 8
  br label %14

14:                                               ; preds = %56, %9
  %15 = load i64, ptr %3, align 8
  %16 = load i32, ptr %6, align 4
  %17 = zext i32 %16 to i64
  %18 = icmp slt i64 %15, %17
  br i1 %18, label %19, label %59

19:                                               ; preds = %14
  %20 = load ptr, ptr %2, align 8
  %21 = load i64, ptr %3, align 8
  %22 = ashr i64 %21, 6
  %23 = add nsw i64 %22, 2
  %24 = getelementptr inbounds i64, ptr %20, i64 %23
  %25 = load i64, ptr %24, align 8
  %26 = load i64, ptr %3, align 8
  %27 = and i64 %26, 63
  %28 = shl i64 1, %27
  %29 = and i64 %25, %28
  %30 = icmp ne i64 %29, 0
  br i1 %30, label %31, label %32

31:                                               ; preds = %19
  br i1 true, label %34, label %33

32:                                               ; preds = %19
  br i1 false, label %34, label %33

33:                                               ; preds = %32, %31
  store i32 0, ptr %4, align 4
  br label %43

34:                                               ; preds = %32, %31
  %35 = load i32, ptr %4, align 4
  %36 = add nsw i32 %35, 1
  store i32 %36, ptr %4, align 4
  %37 = load i32, ptr %4, align 4
  %38 = load i32, ptr %5, align 4
  %39 = icmp sgt i32 %37, %38
  br i1 %39, label %40, label %42

40:                                               ; preds = %34
  %41 = load i32, ptr %4, align 4
  store i32 %41, ptr %5, align 4
  br label %42

42:                                               ; preds = %40, %34
  br label %43

43:                                               ; preds = %42, %33
  %44 = load i32, ptr %4, align 4
  %45 = icmp eq i32 %44, 0
  br i1 %45, label %46, label %55

46:                                               ; preds = %43
  %47 = load i32, ptr %6, align 4
  %48 = zext i32 %47 to i64
  %49 = load i64, ptr %3, align 8
  %50 = sub nsw i64 %48, %49
  %51 = load i32, ptr %5, align 4
  %52 = sext i32 %51 to i64
  %53 = icmp slt i64 %50, %52
  br i1 %53, label %54, label %55

54:                                               ; preds = %46
  br label %59

55:                                               ; preds = %46, %43
  br label %56

56:                                               ; preds = %55
  %57 = load i64, ptr %3, align 8
  %58 = add nsw i64 %57, 1
  store i64 %58, ptr %3, align 8
  br label %14, !llvm.loop !21

59:                                               ; preds = %54, %14
  %60 = load i32, ptr %5, align 4
  call void @llvm.lifetime.end.p0(i64 4, ptr %6) #12
  call void @llvm.lifetime.end.p0(i64 4, ptr %5) #12
  call void @llvm.lifetime.end.p0(i64 4, ptr %4) #12
  call void @llvm.lifetime.end.p0(i64 8, ptr %3) #12
  ret i32 %60
}