; Function Attrs: nofree norecurse nosync nounwind memory(argmem: read) uwtable
define dso_local i32 @bit_nset_max_count(ptr noundef readonly captures(none) %0) #3 {
  %2 = getelementptr inbounds nuw i8, ptr %0, i64 8
  %3 = load i64, ptr %2, align 8
  %4 = and i64 %3, 4294967295
  %invariant.gep = getelementptr inbounds nuw i8, ptr %0, i64 16
  %.not28 = icmp eq i64 %4, 0
  br i1 %.not28, label %._crit_edge, label %.lr.ph

.lr.ph:                                           ; preds = %1, %.lr.ph.backedge
  %.024 = phi i64 [ %.024.be, %.lr.ph.backedge ], [ 0, %1 ]
  %.01523 = phi i32 [ %.2, %.lr.ph.backedge ], [ 0, %1 ]
  %.01622 = phi i32 [ %.117, %.lr.ph.backedge ], [ 0, %1 ]
  %5 = lshr i64 %.024, 6
  %gep = getelementptr inbounds nuw i64, ptr %invariant.gep, i64 %5
  %6 = load i64, ptr %gep, align 8
  %7 = and i64 %.024, 63
  %8 = shl nuw i64 1, %7
  %9 = and i64 %6, %8
  %.not = icmp eq i64 %9, 0
  %10 = add nsw i32 %.01622, 1
  %.not21 = icmp slt i32 %.01622, %.01523
  %.117 = select i1 %.not, i32 0, i32 %10
  %11 = select i1 %.not, i1 true, i1 %.not21
  %.2 = select i1 %11, i32 %.01523, i32 %10
  %12 = icmp eq i32 %.117, 0
  br i1 %12, label %13, label %19

13:                                               ; preds = %.lr.ph
  %14 = sub nsw i64 %4, %.024
  %15 = sext i32 %.2 to i64
  %16 = icmp sge i64 %14, %15
  %17 = add nuw nsw i64 %.024, 1
  %18 = icmp samesign ult i64 %17, %4
  %or.cond = select i1 %16, i1 %18, i1 false
  br i1 %or.cond, label %.lr.ph.backedge, label %._crit_edge

19:                                               ; preds = %.lr.ph
  %.old = add nuw nsw i64 %.024, 1
  %.old27 = icmp samesign ult i64 %.old, %4
  br i1 %.old27, label %.lr.ph.backedge, label %._crit_edge

.lr.ph.backedge:                                  ; preds = %19, %13
  %.024.be = phi i64 [ %.old, %19 ], [ %17, %13 ]
  br label %.lr.ph, !llvm.loop !22

._crit_edge:                                      ; preds = %19, %13, %1
  %.1 = phi i32 [ 0, %1 ], [ %.2, %13 ], [ %.2, %19 ]
  ret i32 %.1
}